; Function Attrs: mustprogress uwtable
define noundef nonnull align 8 dereferenceable(8) ptr @_ZN29colvarbias_restraint_k_moving10write_trajERSo(ptr nocapture noundef nonnull readonly align 8 dereferenceable(56) %0, ptr noundef nonnull returned align 8 dereferenceable(8) %1) unnamed_addr #4 align 2 {
  %3 = load ptr, ptr %0, align 8
  %4 = getelementptr i8, ptr %3, i64 -168
  %5 = load i64, ptr %4, align 8
  %6 = getelementptr inbounds i8, ptr %0, i64 %5
  %7 = getelementptr inbounds i8, ptr %6, i64 9
  %8 = load i8, ptr %7, align 1
  %9 = trunc i8 %8 to i1
  br i1 %9, label %10, label %34

10:                                               ; preds = %2
  %11 = getelementptr i8, ptr %3, i64 -40
  %12 = load i64, ptr %11, align 8
  %13 = getelementptr inbounds i8, ptr %0, i64 %12
  %14 = getelementptr inbounds i8, ptr %13, i64 48
  %15 = load ptr, ptr %14, align 8
  %16 = getelementptr inbounds i8, ptr %15, i64 193
  %17 = load i8, ptr %16, align 1
  %18 = trunc i8 %17 to i1
  br i1 %18, label %19, label %34

19:                                               ; preds = %10
  %20 = tail call noundef nonnull align 8 dereferenceable(8) ptr @_ZStlsISt11char_traitsIcEERSt13basic_ostreamIcT_ES5_PKc(ptr noundef nonnull align 8 dereferenceable(8) %1, ptr noundef nonnull @.str.44)
  %21 = load i64, ptr @_ZN12colvarmodule7en_precE, align 8
  %22 = trunc i64 %21 to i32
  %23 = tail call noundef nonnull align 8 dereferenceable(8) ptr @_ZStlsIcSt11char_traitsIcEERSt13basic_ostreamIT_T0_ES6_St13_Setprecision(ptr noundef nonnull align 8 dereferenceable(8) %20, i32 %22)
  %24 = load i64, ptr @_ZN12colvarmodule8en_widthE, align 8
  %25 = trunc i64 %24 to i32
  %26 = tail call noundef nonnull align 8 dereferenceable(8) ptr @_ZStlsIcSt11char_traitsIcEERSt13basic_ostreamIT_T0_ES6_St5_Setw(ptr noundef nonnull align 8 dereferenceable(8) %23, i32 %25)
  %27 = load ptr, ptr %0, align 8
  %28 = getelementptr i8, ptr %27, i64 -168
  %29 = load i64, ptr %28, align 8
  %30 = getelementptr inbounds i8, ptr %0, i64 %29
  %31 = getelementptr inbounds i8, ptr %30, i64 64
  %32 = load double, ptr %31, align 8
  %33 = tail call noundef nonnull align 8 dereferenceable(8) ptr @_ZNSolsEd(ptr noundef nonnull align 8 dereferenceable(8) %26, double noundef %32)
  br label %34

34:                                               ; preds = %19, %10, %2
  ret ptr %1
}